target datalayout = "e-m:e-p270:32:32-p271:32:32-p272:64:64-i64:64-i128:128-f80:128-n8:16:32:64-S128"
target triple = "x86_64-pc-linux-gnu"

%struct.KEYMAP_ENTRY = type { i32, i64, i8, i32 }

; Function Attrs: nounwind uwtable
define internal void @keysymToAWTKeyCode(i64 noundef %0, ptr noundef %1, ptr noundef %2, ptr noundef %3) #0 {
  %5 = alloca i64, align 8
  %6 = alloca ptr, align 8
  %7 = alloca ptr, align 8
  %8 = alloca ptr, align 8
  %9 = alloca i32, align 4
  store i64 %0, ptr %5, align 8
  store ptr %1, ptr %6, align 8
  store ptr %2, ptr %7, align 8
  store ptr %3, ptr %8, align 8
  %10 = load i64, ptr %5, align 8
  %11 = icmp eq i64 %10, 65406
  br i1 %11, label %12, label %20

12:                                               ; preds = %4
  %13 = call signext i8 @keyboardHasKanaLockKey()
  %14 = sext i8 %13 to i32
  %15 = icmp ne i32 %14, 0
  br i1 %15, label %16, label %20

16:                                               ; preds = %12
  %17 = load ptr, ptr %6, align 8
  store i32 262, ptr %17, align 4
  %18 = load ptr, ptr %7, align 8
  store i8 0, ptr %18, align 1
  %19 = load ptr, ptr %8, align 8
  store i32 0, ptr %19, align 4
  br label %64

20:                                               ; preds = %12, %4
  store i32 0, ptr %9, align 4
  br label %21

21:                                               ; preds = %57, %20
  %22 = load i32, ptr %9, align 4
  %23 = sext i32 %22 to i64
  %24 = getelementptr inbounds [264 x %struct.KEYMAP_ENTRY], ptr @keymapTable, i64 0, i64 %23
  %25 = getelementptr inbounds %struct.KEYMAP_ENTRY, ptr %24, i32 0, i32 0
  %26 = load i32, ptr %25, align 8
  %27 = sext i32 %26 to i64
  %28 = icmp ne i64 %27, 0
  br i1 %28, label %29, label %60

29:                                               ; preds = %21
  %30 = load i32, ptr %9, align 4
  %31 = sext i32 %30 to i64
  %32 = getelementptr inbounds [264 x %struct.KEYMAP_ENTRY], ptr @keymapTable, i64 0, i64 %31
  %33 = getelementptr inbounds %struct.KEYMAP_ENTRY, ptr %32, i32 0, i32 1
  %34 = load i64, ptr %33, align 8
  %35 = load i64, ptr %5, align 8
  %36 = icmp eq i64 %34, %35
  br i1 %36, label %37, label %56

37:                                               ; preds = %29
  %38 = load i32, ptr %9, align 4
  %39 = sext i32 %38 to i64
  %40 = getelementptr inbounds [264 x %struct.KEYMAP_ENTRY], ptr @keymapTable, i64 0, i64 %39
  %41 = getelementptr inbounds %struct.KEYMAP_ENTRY, ptr %40, i32 0, i32 0
  %42 = load i32, ptr %41, align 8
  %43 = load ptr, ptr %6, align 8
  store i32 %42, ptr %43, align 4
  %44 = load i32, ptr %9, align 4
  %45 = sext i32 %44 to i64
  %46 = getelementptr inbounds [264 x %struct.KEYMAP_ENTRY], ptr @keymapTable, i64 0, i64 %45
  %47 = getelementptr inbounds %struct.KEYMAP_ENTRY, ptr %46, i32 0, i32 2
  %48 = load i8, ptr %47, align 8
  %49 = load ptr, ptr %7, align 8
  store i8 %48, ptr %49, align 1
  %50 = load i32, ptr %9, align 4
  %51 = sext i32 %50 to i64
  %52 = getelementptr inbounds [264 x %struct.KEYMAP_ENTRY], ptr @keymapTable, i64 0, i64 %51
  %53 = getelementptr inbounds %struct.KEYMAP_ENTRY, ptr %52, i32 0, i32 3
  %54 = load i32, ptr %53, align 4
  %55 = load ptr, ptr %8, align 8
  store i32 %54, ptr %55, align 4
  br label %64

56:                                               ; preds = %29
  br label %57

57:                                               ; preds = %56
  %58 = load i32, ptr %9, align 4
  %59 = add nsw i32 %58, 1
  store i32 %59, ptr %9, align 4
  br label %21, !llvm.loop !8

60:                                               ; preds = %21
  %61 = load ptr, ptr %6, align 8
  store i32 0, ptr %61, align 4
  %62 = load ptr, ptr %7, align 8
  store i8 0, ptr %62, align 1
  %63 = load ptr, ptr %8, align 8
  store i32 0, ptr %63, align 4
  br label %64

64:                                               ; preds = %60, %37, %16
  ret void
}

; Function Attrs: nounwind uwtable
define i32 @Java_sun_awt_X11_XWindow_getAWTKeyCodeForKeySym(ptr noundef %0, ptr noundef %1, i32 noundef %2) #0 {
  %4 = alloca ptr, align 8
  %5 = alloca ptr, align 8
  %6 = alloca i32, align 4
  %7 = alloca i32, align 4
  %8 = alloca i8, align 1
  %9 = alloca i32, align 4
  store ptr %0, ptr %4, align 8
  store ptr %1, ptr %5, align 8
  store i32 %2, ptr %6, align 4
  store i32 0, ptr %7, align 4
  %10 = load i32, ptr %6, align 4
  %11 = sext i32 %10 to i64
  call void @keysymToAWTKeyCode(i64 noundef %11, ptr noundef %7, ptr noundef %8, ptr noundef %9)
  %12 = load i32, ptr %7, align 4
  ret i32 %12
}