; Function Attrs: nounwind uwtable
define i32 @Java_sun_awt_X11_XWindow_getAWTKeyCodeForKeySym(ptr nocapture noundef readnone %0, ptr nocapture noundef readnone %1, i32 noundef %2) local_unnamed_addr #0 {
  %4 = sext i32 %2 to i64
  %5 = icmp eq i32 %2, 65406
  br i1 %5, label %6, label %8

6:                                                ; preds = %3
  %7 = tail call fastcc signext i8 @keyboardHasKanaLockKey()
  %.not.i = icmp eq i8 %7, 0
  br i1 %.not.i, label %8, label %keysymToAWTKeyCode.exit

8:                                                ; preds = %6, %3
  %9 = load i32, ptr @keymapTable, align 16
  %.not1620.i = icmp eq i32 %9, 0
  br i1 %.not1620.i, label %keysymToAWTKeyCode.exit, label %.lr.ph.i.preheader

.lr.ph.i.preheader:                               ; preds = %8
  %10 = load i64, ptr getelementptr inbounds (i8, ptr @keymapTable, i64 8), align 8
  %11 = icmp eq i64 %10, %4
  br i1 %11, label %keysymToAWTKeyCode.exit, label %.lr.ph

.lr.ph:                                           ; preds = %.lr.ph.i.preheader, %.lr.ph.i
  %indvars.iv.i1 = phi i64 [ %indvars.iv.next.i, %.lr.ph.i ], [ 0, %.lr.ph.i.preheader ]
  %indvars.iv.next.i = add nuw nsw i64 %indvars.iv.i1, 1
  %12 = getelementptr inbounds [264 x %struct.KEYMAP_ENTRY], ptr @keymapTable, i64 0, i64 %indvars.iv.next.i
  %13 = load i32, ptr %12, align 8
  %.not16.i = icmp eq i32 %13, 0
  br i1 %.not16.i, label %keysymToAWTKeyCode.exit, label %.lr.ph.i, !llvm.loop !8

.lr.ph.i:                                         ; preds = %.lr.ph
  %14 = getelementptr inbounds i8, ptr %12, i64 8
  %15 = load i64, ptr %14, align 8
  %16 = icmp eq i64 %15, %4
  br i1 %16, label %keysymToAWTKeyCode.exit, label %.lr.ph, !llvm.loop !8

keysymToAWTKeyCode.exit:                          ; preds = %.lr.ph, %.lr.ph.i, %.lr.ph.i.preheader, %8, %6
  %.0 = phi i32 [ 262, %6 ], [ 0, %8 ], [ %9, %.lr.ph.i.preheader ], [ 0, %.lr.ph ], [ %13, %.lr.ph.i ]
  ret i32 %.0
}